target datalayout = "e-m:e-p270:32:32-p271:32:32-p272:64:64-i64:64-i128:128-f80:128-n8:16:32:64-S128"
target triple = "x86_64-pc-linux-gnu"

; Function Attrs: nounwind uwtable
define internal void @lfe_iir_c(ptr noundef %0, ptr noundef %1, ptr noundef %2, ptr noundef %3, i64 noundef %4) #1 {
  %6 = alloca ptr, align 8
  %7 = alloca ptr, align 8
  %8 = alloca ptr, align 8
  %9 = alloca ptr, align 8
  %10 = alloca i64, align 8
  %11 = alloca float, align 4
  %12 = alloca float, align 4
  %13 = alloca i32, align 4
  %14 = alloca i32, align 4
  %15 = alloca i32, align 4
  store ptr %0, ptr %6, align 8, !tbaa !42
  store ptr %1, ptr %7, align 8, !tbaa !42
  store ptr %2, ptr %8, align 8, !tbaa !42
  store ptr %3, ptr %9, align 8, !tbaa !42
  store i64 %4, ptr %10, align 8, !tbaa !32
  call void @llvm.lifetime.start.p0(i64 4, ptr %11) #7
  call void @llvm.lifetime.start.p0(i64 4, ptr %12) #7
  call void @llvm.lifetime.start.p0(i64 4, ptr %13) #7
  call void @llvm.lifetime.start.p0(i64 4, ptr %14) #7
  call void @llvm.lifetime.start.p0(i64 4, ptr %15) #7
  store i32 0, ptr %13, align 4, !tbaa !34
  br label %16

16:                                               ; preds = %117, %5
  %17 = load i32, ptr %13, align 4, !tbaa !34
  %18 = icmp slt i32 %17, 64
  br i1 %18, label %19, label %120

19:                                               ; preds = %16
  %20 = load ptr, ptr %7, align 8, !tbaa !42
  %21 = getelementptr inbounds nuw float, ptr %20, i32 1
  store ptr %21, ptr %7, align 8, !tbaa !42
  %22 = load float, ptr %20, align 4, !tbaa !44
  store float %22, ptr %11, align 4, !tbaa !44
  store i32 0, ptr %14, align 4, !tbaa !34
  br label %23

23:                                               ; preds = %113, %19
  %24 = load i32, ptr %14, align 4, !tbaa !34
  %25 = sext i32 %24 to i64
  %26 = load i64, ptr %10, align 8, !tbaa !32
  %27 = icmp slt i64 %25, %26
  br i1 %27, label %28, label %116

28:                                               ; preds = %23
  store i32 0, ptr %15, align 4, !tbaa !34
  br label %29

29:                                               ; preds = %106, %28
  %30 = load i32, ptr %15, align 4, !tbaa !34
  %31 = icmp slt i32 %30, 5
  br i1 %31, label %32, label %109

32:                                               ; preds = %29
  %33 = load ptr, ptr %9, align 8, !tbaa !42
  %34 = load i32, ptr %15, align 4, !tbaa !34
  %35 = sext i32 %34 to i64
  %36 = getelementptr inbounds [2 x float], ptr %33, i64 %35
  %37 = getelementptr inbounds [2 x float], ptr %36, i64 0, i64 0
  %38 = load float, ptr %37, align 4, !tbaa !44
  %39 = load ptr, ptr %8, align 8, !tbaa !42
  %40 = load i32, ptr %15, align 4, !tbaa !34
  %41 = sext i32 %40 to i64
  %42 = getelementptr inbounds [4 x float], ptr %39, i64 %41
  %43 = getelementptr inbounds [4 x float], ptr %42, i64 0, i64 0
  %44 = load float, ptr %43, align 4, !tbaa !44
  %45 = load ptr, ptr %9, align 8, !tbaa !42
  %46 = load i32, ptr %15, align 4, !tbaa !34
  %47 = sext i32 %46 to i64
  %48 = getelementptr inbounds [2 x float], ptr %45, i64 %47
  %49 = getelementptr inbounds [2 x float], ptr %48, i64 0, i64 1
  %50 = load float, ptr %49, align 4, !tbaa !44
  %51 = load ptr, ptr %8, align 8, !tbaa !42
  %52 = load i32, ptr %15, align 4, !tbaa !34
  %53 = sext i32 %52 to i64
  %54 = getelementptr inbounds [4 x float], ptr %51, i64 %53
  %55 = getelementptr inbounds [4 x float], ptr %54, i64 0, i64 1
  %56 = load float, ptr %55, align 4, !tbaa !44
  %57 = fmul nsz float %50, %56
  %58 = call nsz float @llvm.fmuladd.f32(float %38, float %44, float %57)
  %59 = load float, ptr %11, align 4, !tbaa !44
  %60 = fadd nsz float %58, %59
  store float %60, ptr %12, align 4, !tbaa !44
  %61 = load ptr, ptr %9, align 8, !tbaa !42
  %62 = load i32, ptr %15, align 4, !tbaa !34
  %63 = sext i32 %62 to i64
  %64 = getelementptr inbounds [2 x float], ptr %61, i64 %63
  %65 = getelementptr inbounds [2 x float], ptr %64, i64 0, i64 0
  %66 = load float, ptr %65, align 4, !tbaa !44
  %67 = load ptr, ptr %8, align 8, !tbaa !42
  %68 = load i32, ptr %15, align 4, !tbaa !34
  %69 = sext i32 %68 to i64
  %70 = getelementptr inbounds [4 x float], ptr %67, i64 %69
  %71 = getelementptr inbounds [4 x float], ptr %70, i64 0, i64 2
  %72 = load float, ptr %71, align 4, !tbaa !44
  %73 = load ptr, ptr %9, align 8, !tbaa !42
  %74 = load i32, ptr %15, align 4, !tbaa !34
  %75 = sext i32 %74 to i64
  %76 = getelementptr inbounds [2 x float], ptr %73, i64 %75
  %77 = getelementptr inbounds [2 x float], ptr %76, i64 0, i64 1
  %78 = load float, ptr %77, align 4, !tbaa !44
  %79 = load ptr, ptr %8, align 8, !tbaa !42
  %80 = load i32, ptr %15, align 4, !tbaa !34
  %81 = sext i32 %80 to i64
  %82 = getelementptr inbounds [4 x float], ptr %79, i64 %81
  %83 = getelementptr inbounds [4 x float], ptr %82, i64 0, i64 3
  %84 = load float, ptr %83, align 4, !tbaa !44
  %85 = fmul nsz float %78, %84
  %86 = call nsz float @llvm.fmuladd.f32(float %66, float %72, float %85)
  %87 = load float, ptr %12, align 4, !tbaa !44
  %88 = fadd nsz float %86, %87
  store float %88, ptr %11, align 4, !tbaa !44
  %89 = load ptr, ptr %9, align 8, !tbaa !42
  %90 = load i32, ptr %15, align 4, !tbaa !34
  %91 = sext i32 %90 to i64
  %92 = getelementptr inbounds [2 x float], ptr %89, i64 %91
  %93 = getelementptr inbounds [2 x float], ptr %92, i64 0, i64 1
  %94 = load float, ptr %93, align 4, !tbaa !44
  %95 = load ptr, ptr %9, align 8, !tbaa !42
  %96 = load i32, ptr %15, align 4, !tbaa !34
  %97 = sext i32 %96 to i64
  %98 = getelementptr inbounds [2 x float], ptr %95, i64 %97
  %99 = getelementptr inbounds [2 x float], ptr %98, i64 0, i64 0
  store float %94, ptr %99, align 4, !tbaa !44
  %100 = load float, ptr %12, align 4, !tbaa !44
  %101 = load ptr, ptr %9, align 8, !tbaa !42
  %102 = load i32, ptr %15, align 4, !tbaa !34
  %103 = sext i32 %102 to i64
  %104 = getelementptr inbounds [2 x float], ptr %101, i64 %103
  %105 = getelementptr inbounds [2 x float], ptr %104, i64 0, i64 1
  store float %100, ptr %105, align 4, !tbaa !44
  br label %106

106:                                              ; preds = %32
  %107 = load i32, ptr %15, align 4, !tbaa !34
  %108 = add nsw i32 %107, 1
  store i32 %108, ptr %15, align 4, !tbaa !34
  br label %29, !llvm.loop !86

109:                                              ; preds = %29
  %110 = load float, ptr %11, align 4, !tbaa !44
  %111 = load ptr, ptr %6, align 8, !tbaa !42
  %112 = getelementptr inbounds nuw float, ptr %111, i32 1
  store ptr %112, ptr %6, align 8, !tbaa !42
  store float %110, ptr %111, align 4, !tbaa !44
  store float 0.000000e+00, ptr %11, align 4, !tbaa !44
  br label %113

113:                                              ; preds = %109
  %114 = load i32, ptr %14, align 4, !tbaa !34
  %115 = add nsw i32 %114, 1
  store i32 %115, ptr %14, align 4, !tbaa !34
  br label %23, !llvm.loop !87

116:                                              ; preds = %23
  br label %117

117:                                              ; preds = %116
  %118 = load i32, ptr %13, align 4, !tbaa !34
  %119 = add nsw i32 %118, 1
  store i32 %119, ptr %13, align 4, !tbaa !34
  br label %16, !llvm.loop !88

120:                                              ; preds = %16
  call void @llvm.lifetime.end.p0(i64 4, ptr %15) #7
  call void @llvm.lifetime.end.p0(i64 4, ptr %14) #7
  call void @llvm.lifetime.end.p0(i64 4, ptr %13) #7
  call void @llvm.lifetime.end.p0(i64 4, ptr %12) #7
  call void @llvm.lifetime.end.p0(i64 4, ptr %11) #7
  ret void
}