; Function Attrs: nofree norecurse nosync nounwind memory(argmem: readwrite) uwtable
define internal void @lfe_iir_c(ptr noundef writeonly captures(none) %0, ptr noundef readonly captures(none) %1, ptr noundef readonly captures(none) %2, ptr noundef captures(none) %3, i64 noundef %4) #3 {
  %6 = icmp sgt i64 %4, 0
  br i1 %6, label %.preheader.lr.ph.us, label %.split49.us

.preheader.lr.ph.us:                              ; preds = %5, %._crit_edge.us
  %.03547.us = phi i32 [ %30, %._crit_edge.us ], [ 0, %5 ]
  %.03646.us = phi ptr [ %9, %._crit_edge.us ], [ %0, %5 ]
  %.03945.us = phi ptr [ %29, %._crit_edge.us ], [ %1, %5 ]
  %7 = load float, ptr %.03945.us, align 4, !tbaa !33
  br label %.preheader.us

8:                                                ; preds = %10
  %9 = getelementptr inbounds nuw i8, ptr %.143.us, i64 4
  store float %28, ptr %.143.us, align 4, !tbaa !33
  %indvars.iv.next54 = add nuw nsw i64 %indvars.iv53, 1
  %exitcond56.not = icmp eq i64 %indvars.iv.next54, %4
  br i1 %exitcond56.not, label %._crit_edge.us, label %.preheader.us, !llvm.loop !74

10:                                               ; preds = %.preheader.us, %10
  %indvars.iv = phi i64 [ 0, %.preheader.us ], [ %indvars.iv.next, %10 ]
  %.13840.us = phi float [ %.03742.us, %.preheader.us ], [ %28, %10 ]
  %11 = getelementptr inbounds nuw [2 x float], ptr %3, i64 %indvars.iv
  %12 = load float, ptr %11, align 4, !tbaa !33
  %13 = getelementptr inbounds nuw [4 x float], ptr %2, i64 %indvars.iv
  %14 = load float, ptr %13, align 4, !tbaa !33
  %15 = getelementptr inbounds nuw i8, ptr %11, i64 4
  %16 = load float, ptr %15, align 4, !tbaa !33
  %17 = getelementptr inbounds nuw i8, ptr %13, i64 4
  %18 = load float, ptr %17, align 4, !tbaa !33
  %19 = fmul nsz float %16, %18
  %20 = tail call nsz float @llvm.fmuladd.f32(float %12, float %14, float %19)
  %21 = fadd nsz float %.13840.us, %20
  %22 = getelementptr inbounds nuw i8, ptr %13, i64 8
  %23 = load float, ptr %22, align 4, !tbaa !33
  %24 = getelementptr inbounds nuw i8, ptr %13, i64 12
  %25 = load float, ptr %24, align 4, !tbaa !33
  %26 = fmul nsz float %16, %25
  %27 = tail call nsz float @llvm.fmuladd.f32(float %12, float %23, float %26)
  %28 = fadd nsz float %21, %27
  store float %16, ptr %11, align 4, !tbaa !33
  store float %21, ptr %15, align 4, !tbaa !33
  %indvars.iv.next = add nuw nsw i64 %indvars.iv, 1
  %exitcond.not = icmp eq i64 %indvars.iv.next, 5
  br i1 %exitcond.not, label %8, label %10, !llvm.loop !75

.preheader.us:                                    ; preds = %.preheader.lr.ph.us, %8
  %indvars.iv53 = phi i64 [ 0, %.preheader.lr.ph.us ], [ %indvars.iv.next54, %8 ]
  %.143.us = phi ptr [ %.03646.us, %.preheader.lr.ph.us ], [ %9, %8 ]
  %.03742.us = phi float [ %7, %.preheader.lr.ph.us ], [ 0.000000e+00, %8 ]
  br label %10

._crit_edge.us:                                   ; preds = %8
  %29 = getelementptr inbounds nuw i8, ptr %.03945.us, i64 4
  %30 = add nuw nsw i32 %.03547.us, 1
  %exitcond57.not = icmp eq i32 %30, 64
  br i1 %exitcond57.not, label %.split49.us, label %.preheader.lr.ph.us, !llvm.loop !76

.split49.us:                                      ; preds = %._crit_edge.us, %5
  ret void
}